; Function Attrs: mustprogress nofree norecurse nosync nounwind willreturn memory(read, inaccessiblemem: none) uwtable
define noundef double @_ZNK8QuantLib6Basket8notionalEv(ptr nocapture noundef nonnull readonly align 8 dereferenceable(272) %this) local_unnamed_addr #13 align 2 {
entry:
  %notionals_ = getelementptr inbounds nuw i8, ptr %this, i64 16
  %0 = load ptr, ptr %notionals_, align 8, !tbaa !3
  %_M_finish.i = getelementptr inbounds nuw i8, ptr %this, i64 24
  %1 = load ptr, ptr %_M_finish.i, align 8, !tbaa !3
  %cmp.i.not4.i = icmp eq ptr %0, %1
  br i1 %cmp.i.not4.i, label %_ZSt10accumulateIN9__gnu_cxx17__normal_iteratorIPKdSt6vectorIdSaIdEEEEdET0_T_S9_S8_.exit, label %for.body.i

for.body.i:                                       ; preds = %entry, %for.body.i
  %__init.addr.06.i = phi double [ %add.i, %for.body.i ], [ 0.000000e+00, %entry ]
  %__first.sroa.0.05.i = phi ptr [ %incdec.ptr.i.i, %for.body.i ], [ %0, %entry ]
  %2 = load double, ptr %__first.sroa.0.05.i, align 8, !tbaa !87
  %add.i = fadd double %__init.addr.06.i, %2
  %incdec.ptr.i.i = getelementptr inbounds nuw i8, ptr %__first.sroa.0.05.i, i64 8
  %cmp.i.not.i = icmp eq ptr %incdec.ptr.i.i, %1
  br i1 %cmp.i.not.i, label %_ZSt10accumulateIN9__gnu_cxx17__normal_iteratorIPKdSt6vectorIdSaIdEEEEdET0_T_S9_S8_.exit, label %for.body.i, !llvm.loop !124

_ZSt10accumulateIN9__gnu_cxx17__normal_iteratorIPKdSt6vectorIdSaIdEEEEdET0_T_S9_S8_.exit: ; preds = %for.body.i, %entry
  %__init.addr.0.lcssa.i = phi double [ 0.000000e+00, %entry ], [ %add.i, %for.body.i ]
  ret double %__init.addr.0.lcssa.i
}